target datalayout = "e-m:e-p270:32:32-p271:32:32-p272:64:64-i64:64-i128:128-f80:128-n8:16:32:64-S128"
target triple = "x86_64-pc-linux-gnu"

%struct.X509_name_st = type { ptr, i32, ptr, ptr, i32 }

@.str.2 = private unnamed_addr constant [32 x i8] c"../openssl/crypto/x509/x_name.c\00", align 1

; Function Attrs: inlinehint nounwind uwtable
define internal ptr @ossl_check_X509_NAME_ENTRY_freefunc_type(ptr noundef %0) #3 {
  %2 = alloca ptr, align 8
  store ptr %0, ptr %2, align 8, !tbaa !57
  %3 = load ptr, ptr %2, align 8, !tbaa !57
  ret ptr %3
}

; Function Attrs: inlinehint nounwind uwtable
define internal ptr @ossl_check_X509_NAME_ENTRY_sk_type(ptr noundef %0) #3 {
  %2 = alloca ptr, align 8
  store ptr %0, ptr %2, align 8, !tbaa !45
  %3 = load ptr, ptr %2, align 8, !tbaa !45
  ret ptr %3
}

; Function Attrs: nounwind uwtable
define internal void @x509_name_ex_free(ptr noundef %0, ptr noundef %1) #0 {
  %3 = alloca ptr, align 8
  %4 = alloca ptr, align 8
  %5 = alloca ptr, align 8
  %6 = alloca i32, align 4
  store ptr %0, ptr %3, align 8, !tbaa !34
  store ptr %1, ptr %4, align 8, !tbaa !36
  call void @llvm.lifetime.start.p0(i64 8, ptr %5) #6
  %7 = load ptr, ptr %3, align 8, !tbaa !34
  %8 = icmp eq ptr %7, null
  br i1 %8, label %13, label %9

9:                                                ; preds = %2
  %10 = load ptr, ptr %3, align 8, !tbaa !34
  %11 = load ptr, ptr %10, align 8, !tbaa !40
  %12 = icmp eq ptr %11, null
  br i1 %12, label %13, label %14

13:                                               ; preds = %9, %2
  store i32 1, ptr %6, align 4
  br label %30

14:                                               ; preds = %9
  %15 = load ptr, ptr %3, align 8, !tbaa !34
  %16 = load ptr, ptr %15, align 8, !tbaa !40
  store ptr %16, ptr %5, align 8, !tbaa !16
  %17 = load ptr, ptr %5, align 8, !tbaa !16
  %18 = getelementptr inbounds nuw %struct.X509_name_st, ptr %17, i32 0, i32 2
  %19 = load ptr, ptr %18, align 8, !tbaa !27
  call void @BUF_MEM_free(ptr noundef %19)
  %20 = load ptr, ptr %5, align 8, !tbaa !16
  %21 = getelementptr inbounds nuw %struct.X509_name_st, ptr %20, i32 0, i32 0
  %22 = load ptr, ptr %21, align 8, !tbaa !38
  %23 = call ptr @ossl_check_X509_NAME_ENTRY_sk_type(ptr noundef %22)
  %24 = call ptr @ossl_check_X509_NAME_ENTRY_freefunc_type(ptr noundef @X509_NAME_ENTRY_free)
  call void @OPENSSL_sk_pop_free(ptr noundef %23, ptr noundef %24)
  %25 = load ptr, ptr %5, align 8, !tbaa !16
  %26 = getelementptr inbounds nuw %struct.X509_name_st, ptr %25, i32 0, i32 3
  %27 = load ptr, ptr %26, align 8, !tbaa !42
  call void @CRYPTO_free(ptr noundef %27, ptr noundef @.str.2, i32 noundef 126)
  %28 = load ptr, ptr %5, align 8, !tbaa !16
  call void @CRYPTO_free(ptr noundef %28, ptr noundef @.str.2, i32 noundef 127)
  %29 = load ptr, ptr %3, align 8, !tbaa !34
  store ptr null, ptr %29, align 8, !tbaa !40
  store i32 0, ptr %6, align 4
  br label %30

30:                                               ; preds = %14, %13
  call void @llvm.lifetime.end.p0(i64 8, ptr %5) #6
  %31 = load i32, ptr %6, align 4
  switch i32 %31, label %33 [
    i32 0, label %32
    i32 1, label %32
  ]

32:                                               ; preds = %30, %30
  ret void

33:                                               ; preds = %30
  unreachable
}