; Function Attrs: nounwind uwtable
define internal void @x509_name_ex_free(ptr noundef captures(address_is_null) %0, ptr readnone captures(none) %1) #1 {
  %3 = icmp eq ptr %0, null
  br i1 %3, label %13, label %4

4:                                                ; preds = %2
  %5 = load ptr, ptr %0, align 8, !tbaa !23
  %6 = icmp eq ptr %5, null
  br i1 %6, label %13, label %7

7:                                                ; preds = %4
  %8 = getelementptr inbounds nuw i8, ptr %5, i64 16
  %9 = load ptr, ptr %8, align 8, !tbaa !9
  tail call void @BUF_MEM_free(ptr noundef %9) #6
  %10 = load ptr, ptr %5, align 8, !tbaa !21
  tail call void @OPENSSL_sk_pop_free(ptr noundef %10, ptr noundef nonnull @X509_NAME_ENTRY_free) #6
  %11 = getelementptr inbounds nuw i8, ptr %5, i64 24
  %12 = load ptr, ptr %11, align 8, !tbaa !25
  tail call void @CRYPTO_free(ptr noundef %12, ptr noundef nonnull @.str.2, i32 noundef 126) #6
  tail call void @CRYPTO_free(ptr noundef nonnull %5, ptr noundef nonnull @.str.2, i32 noundef 127) #6
  store ptr null, ptr %0, align 8, !tbaa !23
  br label %13

13:                                               ; preds = %2, %4, %7
  ret void
}